target datalayout = "e-m:e-p270:32:32-p271:32:32-p272:64:64-i64:64-i128:128-f80:128-n8:16:32:64-S128"
target triple = "x86_64-pc-linux-gnu"

%struct._lv_lru_rb_t = type { %struct._lv_cache_t, %struct._lv_rb_t, %struct.lv_ll_t, ptr }
%struct._lv_cache_t = type { ptr, i32, i32, i32, %struct._lv_cache_ops_t, i32, ptr }
%struct._lv_cache_ops_t = type { ptr, ptr, ptr }
%struct._lv_rb_t = type { ptr, ptr, i64 }
%struct.lv_ll_t = type { i32, ptr, ptr }
%struct._lv_rb_node_t = type { ptr, ptr, ptr, i32, ptr }

; Function Attrs: nounwind uwtable
define internal i32 @cache_iter_next_cb(ptr noundef %0, ptr noundef %1, ptr noundef %2) #0 {
  %4 = alloca i32, align 4
  %5 = alloca ptr, align 8
  %6 = alloca ptr, align 8
  %7 = alloca ptr, align 8
  %8 = alloca ptr, align 8
  %9 = alloca ptr, align 8
  %10 = alloca ptr, align 8
  %11 = alloca i32, align 4
  %12 = alloca i32, align 4
  %13 = alloca ptr, align 8
  store ptr %0, ptr %5, align 8, !tbaa !3
  store ptr %1, ptr %6, align 8, !tbaa !3
  store ptr %2, ptr %7, align 8, !tbaa !3
  call void @llvm.lifetime.start.p0(i64 8, ptr %8) #4
  %14 = load ptr, ptr %5, align 8, !tbaa !3
  store ptr %14, ptr %8, align 8, !tbaa !3
  call void @llvm.lifetime.start.p0(i64 8, ptr %9) #4
  %15 = load ptr, ptr %6, align 8, !tbaa !3
  store ptr %15, ptr %9, align 8, !tbaa !3
  br label %16

16:                                               ; preds = %3
  %17 = load ptr, ptr %9, align 8, !tbaa !3
  %18 = icmp ne ptr %17, null
  br i1 %18, label %25, label %19

19:                                               ; preds = %16
  br label %20

20:                                               ; preds = %19
  br label %21

21:                                               ; preds = %20
  br label %22

22:                                               ; preds = %21
  br label %23

23:                                               ; preds = %24, %22
  br label %24

24:                                               ; preds = %23
  br label %23

25:                                               ; preds = %16
  br label %26

26:                                               ; preds = %25
  br label %27

27:                                               ; preds = %26
  %28 = load ptr, ptr %9, align 8, !tbaa !3
  %29 = load ptr, ptr %28, align 8, !tbaa !3
  %30 = icmp eq ptr %29, null
  br i1 %30, label %31, label %36

31:                                               ; preds = %27
  %32 = load ptr, ptr %8, align 8, !tbaa !3
  %33 = getelementptr inbounds nuw %struct._lv_lru_rb_t, ptr %32, i32 0, i32 2
  %34 = call ptr @lv_ll_get_head(ptr noundef %33)
  %35 = load ptr, ptr %9, align 8, !tbaa !3
  store ptr %34, ptr %35, align 8, !tbaa !3
  br label %43

36:                                               ; preds = %27
  %37 = load ptr, ptr %8, align 8, !tbaa !3
  %38 = getelementptr inbounds nuw %struct._lv_lru_rb_t, ptr %37, i32 0, i32 2
  %39 = load ptr, ptr %9, align 8, !tbaa !3
  %40 = load ptr, ptr %39, align 8, !tbaa !3
  %41 = call ptr @lv_ll_get_next(ptr noundef %38, ptr noundef %40)
  %42 = load ptr, ptr %9, align 8, !tbaa !3
  store ptr %41, ptr %42, align 8, !tbaa !3
  br label %43

43:                                               ; preds = %36, %31
  call void @llvm.lifetime.start.p0(i64 8, ptr %10) #4
  %44 = load ptr, ptr %9, align 8, !tbaa !3
  %45 = load ptr, ptr %44, align 8, !tbaa !3
  store ptr %45, ptr %10, align 8, !tbaa !3
  %46 = load ptr, ptr %10, align 8, !tbaa !3
  %47 = icmp eq ptr %46, null
  br i1 %47, label %48, label %49

48:                                               ; preds = %43
  store i32 0, ptr %4, align 4
  store i32 1, ptr %11, align 4
  br label %64

49:                                               ; preds = %43
  call void @llvm.lifetime.start.p0(i64 4, ptr %12) #4
  %50 = load ptr, ptr %8, align 8, !tbaa !3
  %51 = getelementptr inbounds nuw %struct._lv_lru_rb_t, ptr %50, i32 0, i32 0
  %52 = getelementptr inbounds nuw %struct._lv_cache_t, ptr %51, i32 0, i32 1
  %53 = load i32, ptr %52, align 8, !tbaa !16
  store i32 %53, ptr %12, align 4, !tbaa !25
  call void @llvm.lifetime.start.p0(i64 8, ptr %13) #4
  %54 = load ptr, ptr %10, align 8, !tbaa !3
  %55 = load ptr, ptr %54, align 8, !tbaa !3
  %56 = getelementptr inbounds nuw %struct._lv_rb_node_t, ptr %55, i32 0, i32 4
  %57 = load ptr, ptr %56, align 8, !tbaa !21
  store ptr %57, ptr %13, align 8, !tbaa !3
  %58 = load ptr, ptr %7, align 8, !tbaa !3
  %59 = load ptr, ptr %13, align 8, !tbaa !3
  %60 = load i32, ptr %12, align 4, !tbaa !25
  %61 = call i32 @lv_cache_entry_get_size(i32 noundef %60)
  %62 = zext i32 %61 to i64
  %63 = call ptr @lv_memcpy(ptr noundef %58, ptr noundef %59, i64 noundef %62)
  store i32 1, ptr %4, align 4
  store i32 1, ptr %11, align 4
  call void @llvm.lifetime.end.p0(i64 8, ptr %13) #4
  call void @llvm.lifetime.end.p0(i64 4, ptr %12) #4
  br label %64

64:                                               ; preds = %49, %48
  call void @llvm.lifetime.end.p0(i64 8, ptr %10) #4
  call void @llvm.lifetime.end.p0(i64 8, ptr %9) #4
  call void @llvm.lifetime.end.p0(i64 8, ptr %8) #4
  %65 = load i32, ptr %4, align 4
  ret i32 %65
}