; Function Attrs: nounwind uwtable
define internal range(i32 0, 2) i32 @cache_iter_next_cb(ptr noundef %0, ptr noundef %1, ptr noundef %2) #0 {
  %.not = icmp eq ptr %1, null
  br i1 %.not, label %.preheader, label %4

.preheader:                                       ; preds = %3, %.preheader
  br label %.preheader

4:                                                ; preds = %3
  %5 = load ptr, ptr %1, align 8, !tbaa !20
  %6 = icmp eq ptr %5, null
  %7 = getelementptr inbounds nuw i8, ptr %0, i64 88
  br i1 %6, label %8, label %10

8:                                                ; preds = %4
  %9 = tail call ptr @lv_ll_get_head(ptr noundef nonnull %7) #5
  br label %12

10:                                               ; preds = %4
  %11 = tail call ptr @lv_ll_get_next(ptr noundef nonnull %7, ptr noundef nonnull %5) #5
  br label %12

12:                                               ; preds = %10, %8
  %storemerge = phi ptr [ %11, %10 ], [ %9, %8 ]
  store ptr %storemerge, ptr %1, align 8, !tbaa !20
  %13 = icmp eq ptr %storemerge, null
  br i1 %13, label %23, label %14

14:                                               ; preds = %12
  %15 = getelementptr inbounds nuw i8, ptr %0, i64 8
  %16 = load i32, ptr %15, align 8, !tbaa !15
  %17 = load ptr, ptr %storemerge, align 8, !tbaa !20
  %18 = getelementptr inbounds nuw i8, ptr %17, i64 32
  %19 = load ptr, ptr %18, align 8, !tbaa !21
  %20 = tail call i32 @lv_cache_entry_get_size(i32 noundef %16) #5
  %21 = zext i32 %20 to i64
  %22 = tail call ptr @lv_memcpy(ptr noundef %2, ptr noundef %19, i64 noundef %21) #5
  br label %23

23:                                               ; preds = %12, %14
  %.0 = phi i32 [ 1, %14 ], [ 0, %12 ]
  ret i32 %.0
}